target datalayout = "e-m:e-p270:32:32-p271:32:32-p272:64:64-i64:64-i128:128-f80:128-n8:16:32:64-S128"
target triple = "x86_64-pc-linux-gnu"

@save_argc = internal global i32 0, align 4
@save_argv = internal global ptr null, align 8
@ps_buffer = internal global ptr null, align 8
@ps_buffer_size = internal global i64 0, align 8
@environ = external global ptr, align 8
@last_status_len = internal global i64 0, align 8
@.str = private unnamed_addr constant [15 x i8] c"out of memory\0A\00", align 1

; Function Attrs: nounwind uwtable
define dso_local ptr @save_ps_display_args(i32 noundef %0, ptr noundef %1) #0 {
  %3 = alloca ptr, align 8
  %4 = alloca i32, align 4
  %5 = alloca ptr, align 8
  %6 = alloca ptr, align 8
  %7 = alloca ptr, align 8
  %8 = alloca i32, align 4
  %9 = alloca i32, align 4
  %10 = alloca ptr, align 8
  %11 = alloca i32, align 4
  store i32 %0, ptr %4, align 4
  store ptr %1, ptr %5, align 8
  %12 = load i32, ptr %4, align 4
  store i32 %12, ptr @save_argc, align 4
  %13 = load ptr, ptr %5, align 8
  store ptr %13, ptr @save_argv, align 8
  call void @llvm.lifetime.start.p0(i64 8, ptr %6) #10
  store ptr null, ptr %6, align 8
  call void @llvm.lifetime.start.p0(i64 8, ptr %7) #10
  call void @llvm.lifetime.start.p0(i64 4, ptr %8) #10
  store i32 0, ptr %8, align 4
  br label %14

14:                                               ; preds = %44, %2
  %15 = load i32, ptr %8, align 4
  %16 = load i32, ptr %4, align 4
  %17 = icmp slt i32 %15, %16
  br i1 %17, label %18, label %47

18:                                               ; preds = %14
  %19 = load i32, ptr %8, align 4
  %20 = icmp eq i32 %19, 0
  br i1 %20, label %30, label %21

21:                                               ; preds = %18
  %22 = load ptr, ptr %6, align 8
  %23 = getelementptr inbounds i8, ptr %22, i64 1
  %24 = load ptr, ptr %5, align 8
  %25 = load i32, ptr %8, align 4
  %26 = sext i32 %25 to i64
  %27 = getelementptr inbounds ptr, ptr %24, i64 %26
  %28 = load ptr, ptr %27, align 8
  %29 = icmp eq ptr %23, %28
  br i1 %29, label %30, label %43

30:                                               ; preds = %21, %18
  %31 = load ptr, ptr %5, align 8
  %32 = load i32, ptr %8, align 4
  %33 = sext i32 %32 to i64
  %34 = getelementptr inbounds ptr, ptr %31, i64 %33
  %35 = load ptr, ptr %34, align 8
  %36 = load ptr, ptr %5, align 8
  %37 = load i32, ptr %8, align 4
  %38 = sext i32 %37 to i64
  %39 = getelementptr inbounds ptr, ptr %36, i64 %38
  %40 = load ptr, ptr %39, align 8
  %41 = call i64 @strlen(ptr noundef %40) #11
  %42 = getelementptr inbounds nuw i8, ptr %35, i64 %41
  store ptr %42, ptr %6, align 8
  br label %43

43:                                               ; preds = %30, %21
  br label %44

44:                                               ; preds = %43
  %45 = load i32, ptr %8, align 4
  %46 = add i32 %45, 1
  store i32 %46, ptr %8, align 4
  br label %14, !llvm.loop !4

47:                                               ; preds = %14
  %48 = load ptr, ptr %6, align 8
  %49 = icmp eq ptr %48, null
  br i1 %49, label %50, label %52

50:                                               ; preds = %47
  store ptr null, ptr @ps_buffer, align 8
  store i64 0, ptr @ps_buffer_size, align 8
  %51 = load ptr, ptr %5, align 8
  store ptr %51, ptr %3, align 8
  store i32 1, ptr %9, align 4
  br label %141

52:                                               ; preds = %47
  store i32 0, ptr %8, align 4
  br label %53

53:                                               ; preds = %83, %52
  %54 = load ptr, ptr @environ, align 8
  %55 = load i32, ptr %8, align 4
  %56 = sext i32 %55 to i64
  %57 = getelementptr inbounds ptr, ptr %54, i64 %56
  %58 = load ptr, ptr %57, align 8
  %59 = icmp ne ptr %58, null
  br i1 %59, label %60, label %86

60:                                               ; preds = %53
  %61 = load ptr, ptr %6, align 8
  %62 = getelementptr inbounds i8, ptr %61, i64 1
  %63 = load ptr, ptr @environ, align 8
  %64 = load i32, ptr %8, align 4
  %65 = sext i32 %64 to i64
  %66 = getelementptr inbounds ptr, ptr %63, i64 %65
  %67 = load ptr, ptr %66, align 8
  %68 = icmp eq ptr %62, %67
  br i1 %68, label %69, label %82

69:                                               ; preds = %60
  %70 = load ptr, ptr @environ, align 8
  %71 = load i32, ptr %8, align 4
  %72 = sext i32 %71 to i64
  %73 = getelementptr inbounds ptr, ptr %70, i64 %72
  %74 = load ptr, ptr %73, align 8
  %75 = load ptr, ptr @environ, align 8
  %76 = load i32, ptr %8, align 4
  %77 = sext i32 %76 to i64
  %78 = getelementptr inbounds ptr, ptr %75, i64 %77
  %79 = load ptr, ptr %78, align 8
  %80 = call i64 @strlen(ptr noundef %79) #11
  %81 = getelementptr inbounds nuw i8, ptr %74, i64 %80
  store ptr %81, ptr %6, align 8
  br label %82

82:                                               ; preds = %69, %60
  br label %83

83:                                               ; preds = %82
  %84 = load i32, ptr %8, align 4
  %85 = add i32 %84, 1
  store i32 %85, ptr %8, align 4
  br label %53, !llvm.loop !6

86:                                               ; preds = %53
  %87 = load ptr, ptr %5, align 8
  %88 = getelementptr inbounds ptr, ptr %87, i64 0
  %89 = load ptr, ptr %88, align 8
  store ptr %89, ptr @ps_buffer, align 8
  %90 = load ptr, ptr %6, align 8
  %91 = load ptr, ptr %5, align 8
  %92 = getelementptr inbounds ptr, ptr %91, i64 0
  %93 = load ptr, ptr %92, align 8
  %94 = ptrtoint ptr %90 to i64
  %95 = ptrtoint ptr %93 to i64
  %96 = sub i64 %94, %95
  store i64 %96, ptr @ps_buffer_size, align 8
  store i64 %96, ptr @last_status_len, align 8
  %97 = load i32, ptr %8, align 4
  %98 = add i32 %97, 1
  %99 = sext i32 %98 to i64
  %100 = mul i64 %99, 8
  %101 = call noalias ptr @malloc(i64 noundef %100) #12
  store ptr %101, ptr %7, align 8
  %102 = load ptr, ptr %7, align 8
  %103 = icmp ne ptr %102, null
  br i1 %103, label %105, label %104

104:                                              ; preds = %86
  call void (ptr, ...) @write_stderr(ptr noundef @.str)
  call void @exit(i32 noundef 1) #13
  unreachable

105:                                              ; preds = %86
  store i32 0, ptr %8, align 4
  br label %106

106:                                              ; preds = %132, %105
  %107 = load ptr, ptr @environ, align 8
  %108 = load i32, ptr %8, align 4
  %109 = sext i32 %108 to i64
  %110 = getelementptr inbounds ptr, ptr %107, i64 %109
  %111 = load ptr, ptr %110, align 8
  %112 = icmp ne ptr %111, null
  br i1 %112, label %113, label %135

113:                                              ; preds = %106
  %114 = load ptr, ptr @environ, align 8
  %115 = load i32, ptr %8, align 4
  %116 = sext i32 %115 to i64
  %117 = getelementptr inbounds ptr, ptr %114, i64 %116
  %118 = load ptr, ptr %117, align 8
  %119 = call noalias ptr @strdup(ptr noundef %118) #10
  %120 = load ptr, ptr %7, align 8
  %121 = load i32, ptr %8, align 4
  %122 = sext i32 %121 to i64
  %123 = getelementptr inbounds ptr, ptr %120, i64 %122
  store ptr %119, ptr %123, align 8
  %124 = load ptr, ptr %7, align 8
  %125 = load i32, ptr %8, align 4
  %126 = sext i32 %125 to i64
  %127 = getelementptr inbounds ptr, ptr %124, i64 %126
  %128 = load ptr, ptr %127, align 8
  %129 = icmp ne ptr %128, null
  br i1 %129, label %131, label %130

130:                                              ; preds = %113
  call void (ptr, ...) @write_stderr(ptr noundef @.str)
  call void @exit(i32 noundef 1) #13
  unreachable

131:                                              ; preds = %113
  br label %132

132:                                              ; preds = %131
  %133 = load i32, ptr %8, align 4
  %134 = add i32 %133, 1
  store i32 %134, ptr %8, align 4
  br label %106, !llvm.loop !7

135:                                              ; preds = %106
  %136 = load ptr, ptr %7, align 8
  %137 = load i32, ptr %8, align 4
  %138 = sext i32 %137 to i64
  %139 = getelementptr inbounds ptr, ptr %136, i64 %138
  store ptr null, ptr %139, align 8
  %140 = load ptr, ptr %7, align 8
  store ptr %140, ptr @environ, align 8
  store i32 0, ptr %9, align 4
  br label %141

141:                                              ; preds = %135, %50
  call void @llvm.lifetime.end.p0(i64 4, ptr %8) #10
  call void @llvm.lifetime.end.p0(i64 8, ptr %7) #10
  call void @llvm.lifetime.end.p0(i64 8, ptr %6) #10
  %142 = load i32, ptr %9, align 4
  switch i32 %142, label %188 [
    i32 0, label %143
    i32 1, label %186
  ]

143:                                              ; preds = %141
  call void @llvm.lifetime.start.p0(i64 8, ptr %10) #10
  call void @llvm.lifetime.start.p0(i64 4, ptr %11) #10
  %144 = load i32, ptr %4, align 4
  %145 = add i32 %144, 1
  %146 = sext i32 %145 to i64
  %147 = mul i64 %146, 8
  %148 = call noalias ptr @malloc(i64 noundef %147) #12
  store ptr %148, ptr %10, align 8
  %149 = load ptr, ptr %10, align 8
  %150 = icmp ne ptr %149, null
  br i1 %150, label %152, label %151

151:                                              ; preds = %143
  call void (ptr, ...) @write_stderr(ptr noundef @.str)
  call void @exit(i32 noundef 1) #13
  unreachable

152:                                              ; preds = %143
  store i32 0, ptr %11, align 4
  br label %153

153:                                              ; preds = %176, %152
  %154 = load i32, ptr %11, align 4
  %155 = load i32, ptr %4, align 4
  %156 = icmp slt i32 %154, %155
  br i1 %156, label %157, label %179

157:                                              ; preds = %153
  %158 = load ptr, ptr %5, align 8
  %159 = load i32, ptr %11, align 4
  %160 = sext i32 %159 to i64
  %161 = getelementptr inbounds ptr, ptr %158, i64 %160
  %162 = load ptr, ptr %161, align 8
  %163 = call noalias ptr @strdup(ptr noundef %162) #10
  %164 = load ptr, ptr %10, align 8
  %165 = load i32, ptr %11, align 4
  %166 = sext i32 %165 to i64
  %167 = getelementptr inbounds ptr, ptr %164, i64 %166
  store ptr %163, ptr %167, align 8
  %168 = load ptr, ptr %10, align 8
  %169 = load i32, ptr %11, align 4
  %170 = sext i32 %169 to i64
  %171 = getelementptr inbounds ptr, ptr %168, i64 %170
  %172 = load ptr, ptr %171, align 8
  %173 = icmp ne ptr %172, null
  br i1 %173, label %175, label %174

174:                                              ; preds = %157
  call void (ptr, ...) @write_stderr(ptr noundef @.str)
  call void @exit(i32 noundef 1) #13
  unreachable

175:                                              ; preds = %157
  br label %176

176:                                              ; preds = %175
  %177 = load i32, ptr %11, align 4
  %178 = add i32 %177, 1
  store i32 %178, ptr %11, align 4
  br label %153, !llvm.loop !8

179:                                              ; preds = %153
  %180 = load ptr, ptr %10, align 8
  %181 = load i32, ptr %4, align 4
  %182 = sext i32 %181 to i64
  %183 = getelementptr inbounds ptr, ptr %180, i64 %182
  store ptr null, ptr %183, align 8
  %184 = load ptr, ptr %10, align 8
  store ptr %184, ptr %5, align 8
  call void @llvm.lifetime.end.p0(i64 4, ptr %11) #10
  call void @llvm.lifetime.end.p0(i64 8, ptr %10) #10
  %185 = load ptr, ptr %5, align 8
  store ptr %185, ptr %3, align 8
  br label %186

186:                                              ; preds = %179, %141
  %187 = load ptr, ptr %3, align 8
  ret ptr %187

188:                                              ; preds = %141
  unreachable
}